target datalayout = "e-m:e-p270:32:32-p271:32:32-p272:64:64-i64:64-i128:128-f80:128-n8:16:32:64-S128"
target triple = "x86_64-pc-linux-gnu"

%struct.aclSelector = type { i32, [16 x i64], ptr, ptr, ptr, ptr }

; Function Attrs: nounwind uwtable
define dso_local void @ACLAddAllowedFirstArg(ptr noundef %0, i64 noundef %1, ptr noundef %2) #0 {
  %4 = alloca ptr, align 8
  %5 = alloca i64, align 8
  %6 = alloca ptr, align 8
  %7 = alloca i64, align 8
  %8 = alloca i32, align 4
  store ptr %0, ptr %4, align 8, !tbaa !32
  store i64 %1, ptr %5, align 8, !tbaa !10
  store ptr %2, ptr %6, align 8, !tbaa !5
  %9 = load ptr, ptr %4, align 8, !tbaa !32
  %10 = getelementptr inbounds nuw %struct.aclSelector, ptr %9, i32 0, i32 2
  %11 = load ptr, ptr %10, align 8, !tbaa !69
  %12 = icmp eq ptr %11, null
  br i1 %12, label %13, label %17

13:                                               ; preds = %3
  %14 = call noalias ptr @zcalloc(i64 noundef 8192) #13
  %15 = load ptr, ptr %4, align 8, !tbaa !32
  %16 = getelementptr inbounds nuw %struct.aclSelector, ptr %15, i32 0, i32 2
  store ptr %14, ptr %16, align 8, !tbaa !69
  br label %17

17:                                               ; preds = %13, %3
  call void @llvm.lifetime.start.p0(i64 8, ptr %7) #14
  store i64 0, ptr %7, align 8, !tbaa !10
  %18 = load ptr, ptr %4, align 8, !tbaa !32
  %19 = getelementptr inbounds nuw %struct.aclSelector, ptr %18, i32 0, i32 2
  %20 = load ptr, ptr %19, align 8, !tbaa !69
  %21 = load i64, ptr %5, align 8, !tbaa !10
  %22 = getelementptr inbounds nuw ptr, ptr %20, i64 %21
  %23 = load ptr, ptr %22, align 8, !tbaa !33
  %24 = icmp ne ptr %23, null
  br i1 %24, label %25, label %55

25:                                               ; preds = %17
  br label %26

26:                                               ; preds = %51, %25
  %27 = load ptr, ptr %4, align 8, !tbaa !32
  %28 = getelementptr inbounds nuw %struct.aclSelector, ptr %27, i32 0, i32 2
  %29 = load ptr, ptr %28, align 8, !tbaa !69
  %30 = load i64, ptr %5, align 8, !tbaa !10
  %31 = getelementptr inbounds nuw ptr, ptr %29, i64 %30
  %32 = load ptr, ptr %31, align 8, !tbaa !33
  %33 = load i64, ptr %7, align 8, !tbaa !10
  %34 = getelementptr inbounds ptr, ptr %32, i64 %33
  %35 = load ptr, ptr %34, align 8, !tbaa !5
  %36 = icmp ne ptr %35, null
  br i1 %36, label %37, label %54

37:                                               ; preds = %26
  %38 = load ptr, ptr %4, align 8, !tbaa !32
  %39 = getelementptr inbounds nuw %struct.aclSelector, ptr %38, i32 0, i32 2
  %40 = load ptr, ptr %39, align 8, !tbaa !69
  %41 = load i64, ptr %5, align 8, !tbaa !10
  %42 = getelementptr inbounds nuw ptr, ptr %40, i64 %41
  %43 = load ptr, ptr %42, align 8, !tbaa !33
  %44 = load i64, ptr %7, align 8, !tbaa !10
  %45 = getelementptr inbounds ptr, ptr %43, i64 %44
  %46 = load ptr, ptr %45, align 8, !tbaa !5
  %47 = load ptr, ptr %6, align 8, !tbaa !5
  %48 = call i32 @strcasecmp(ptr noundef %46, ptr noundef %47) #17
  %49 = icmp ne i32 %48, 0
  br i1 %49, label %51, label %50

50:                                               ; preds = %37
  store i32 1, ptr %8, align 4
  br label %92

51:                                               ; preds = %37
  %52 = load i64, ptr %7, align 8, !tbaa !10
  %53 = add nsw i64 %52, 1
  store i64 %53, ptr %7, align 8, !tbaa !10
  br label %26, !llvm.loop !80

54:                                               ; preds = %26
  br label %55

55:                                               ; preds = %54, %17
  %56 = load i64, ptr %7, align 8, !tbaa !10
  %57 = add nsw i64 %56, 2
  store i64 %57, ptr %7, align 8, !tbaa !10
  %58 = load ptr, ptr %4, align 8, !tbaa !32
  %59 = getelementptr inbounds nuw %struct.aclSelector, ptr %58, i32 0, i32 2
  %60 = load ptr, ptr %59, align 8, !tbaa !69
  %61 = load i64, ptr %5, align 8, !tbaa !10
  %62 = getelementptr inbounds nuw ptr, ptr %60, i64 %61
  %63 = load ptr, ptr %62, align 8, !tbaa !33
  %64 = load i64, ptr %7, align 8, !tbaa !10
  %65 = mul i64 8, %64
  %66 = call ptr @zrealloc(ptr noundef %63, i64 noundef %65) #18
  %67 = load ptr, ptr %4, align 8, !tbaa !32
  %68 = getelementptr inbounds nuw %struct.aclSelector, ptr %67, i32 0, i32 2
  %69 = load ptr, ptr %68, align 8, !tbaa !69
  %70 = load i64, ptr %5, align 8, !tbaa !10
  %71 = getelementptr inbounds nuw ptr, ptr %69, i64 %70
  store ptr %66, ptr %71, align 8, !tbaa !33
  %72 = load ptr, ptr %6, align 8, !tbaa !5
  %73 = call ptr @sdsnew(ptr noundef %72)
  %74 = load ptr, ptr %4, align 8, !tbaa !32
  %75 = getelementptr inbounds nuw %struct.aclSelector, ptr %74, i32 0, i32 2
  %76 = load ptr, ptr %75, align 8, !tbaa !69
  %77 = load i64, ptr %5, align 8, !tbaa !10
  %78 = getelementptr inbounds nuw ptr, ptr %76, i64 %77
  %79 = load ptr, ptr %78, align 8, !tbaa !33
  %80 = load i64, ptr %7, align 8, !tbaa !10
  %81 = sub nsw i64 %80, 2
  %82 = getelementptr inbounds ptr, ptr %79, i64 %81
  store ptr %73, ptr %82, align 8, !tbaa !5
  %83 = load ptr, ptr %4, align 8, !tbaa !32
  %84 = getelementptr inbounds nuw %struct.aclSelector, ptr %83, i32 0, i32 2
  %85 = load ptr, ptr %84, align 8, !tbaa !69
  %86 = load i64, ptr %5, align 8, !tbaa !10
  %87 = getelementptr inbounds nuw ptr, ptr %85, i64 %86
  %88 = load ptr, ptr %87, align 8, !tbaa !33
  %89 = load i64, ptr %7, align 8, !tbaa !10
  %90 = sub nsw i64 %89, 1
  %91 = getelementptr inbounds ptr, ptr %88, i64 %90
  store ptr null, ptr %91, align 8, !tbaa !5
  store i32 0, ptr %8, align 4
  br label %92

92:                                               ; preds = %55, %50
  call void @llvm.lifetime.end.p0(i64 8, ptr %7) #14
  %93 = load i32, ptr %8, align 4
  switch i32 %93, label %95 [
    i32 0, label %94
    i32 1, label %94
  ]

94:                                               ; preds = %92, %92
  ret void

95:                                               ; preds = %92
  unreachable
}

; Function Attrs: nounwind uwtable
define dso_local ptr @ACLCopySelector(ptr noundef %0) #0 {
  %2 = alloca ptr, align 8
  %3 = alloca ptr, align 8
  %4 = alloca i32, align 4
  %5 = alloca i32, align 4
  %6 = alloca i32, align 4
  store ptr %0, ptr %2, align 8, !tbaa !32
  call void @llvm.lifetime.start.p0(i64 8, ptr %3) #14
  %7 = call noalias ptr @zmalloc(i64 noundef 168) #13
  store ptr %7, ptr %3, align 8, !tbaa !32
  %8 = load ptr, ptr %2, align 8, !tbaa !32
  %9 = getelementptr inbounds nuw %struct.aclSelector, ptr %8, i32 0, i32 0
  %10 = load i32, ptr %9, align 8, !tbaa !64
  %11 = load ptr, ptr %3, align 8, !tbaa !32
  %12 = getelementptr inbounds nuw %struct.aclSelector, ptr %11, i32 0, i32 0
  store i32 %10, ptr %12, align 8, !tbaa !64
  %13 = load ptr, ptr %2, align 8, !tbaa !32
  %14 = getelementptr inbounds nuw %struct.aclSelector, ptr %13, i32 0, i32 3
  %15 = load ptr, ptr %14, align 8, !tbaa !67
  %16 = call ptr @listDup(ptr noundef %15)
  %17 = load ptr, ptr %3, align 8, !tbaa !32
  %18 = getelementptr inbounds nuw %struct.aclSelector, ptr %17, i32 0, i32 3
  store ptr %16, ptr %18, align 8, !tbaa !67
  %19 = load ptr, ptr %2, align 8, !tbaa !32
  %20 = getelementptr inbounds nuw %struct.aclSelector, ptr %19, i32 0, i32 4
  %21 = load ptr, ptr %20, align 8, !tbaa !68
  %22 = call ptr @listDup(ptr noundef %21)
  %23 = load ptr, ptr %3, align 8, !tbaa !32
  %24 = getelementptr inbounds nuw %struct.aclSelector, ptr %23, i32 0, i32 4
  store ptr %22, ptr %24, align 8, !tbaa !68
  %25 = load ptr, ptr %2, align 8, !tbaa !32
  %26 = getelementptr inbounds nuw %struct.aclSelector, ptr %25, i32 0, i32 5
  %27 = load ptr, ptr %26, align 8, !tbaa !70
  %28 = call ptr @sdsdup(ptr noundef %27)
  %29 = load ptr, ptr %3, align 8, !tbaa !32
  %30 = getelementptr inbounds nuw %struct.aclSelector, ptr %29, i32 0, i32 5
  store ptr %28, ptr %30, align 8, !tbaa !70
  %31 = load ptr, ptr %3, align 8, !tbaa !32
  %32 = getelementptr inbounds nuw %struct.aclSelector, ptr %31, i32 0, i32 1
  %33 = getelementptr inbounds [16 x i64], ptr %32, i64 0, i64 0
  %34 = load ptr, ptr %2, align 8, !tbaa !32
  %35 = getelementptr inbounds nuw %struct.aclSelector, ptr %34, i32 0, i32 1
  %36 = getelementptr inbounds [16 x i64], ptr %35, i64 0, i64 0
  call void @llvm.memcpy.p0.p0.i64(ptr align 8 %33, ptr align 8 %36, i64 128, i1 false)
  %37 = load ptr, ptr %3, align 8, !tbaa !32
  %38 = getelementptr inbounds nuw %struct.aclSelector, ptr %37, i32 0, i32 2
  store ptr null, ptr %38, align 8, !tbaa !69
  %39 = load ptr, ptr %2, align 8, !tbaa !32
  %40 = getelementptr inbounds nuw %struct.aclSelector, ptr %39, i32 0, i32 2
  %41 = load ptr, ptr %40, align 8, !tbaa !69
  %42 = icmp ne ptr %41, null
  br i1 %42, label %43, label %96

43:                                               ; preds = %1
  call void @llvm.lifetime.start.p0(i64 4, ptr %4) #14
  store i32 0, ptr %4, align 4, !tbaa !17
  br label %44

44:                                               ; preds = %92, %43
  %45 = load i32, ptr %4, align 4, !tbaa !17
  %46 = icmp slt i32 %45, 1024
  br i1 %46, label %48, label %47

47:                                               ; preds = %44
  store i32 2, ptr %5, align 4
  call void @llvm.lifetime.end.p0(i64 4, ptr %4) #14
  br label %95

48:                                               ; preds = %44
  %49 = load ptr, ptr %2, align 8, !tbaa !32
  %50 = getelementptr inbounds nuw %struct.aclSelector, ptr %49, i32 0, i32 2
  %51 = load ptr, ptr %50, align 8, !tbaa !69
  %52 = load i32, ptr %4, align 4, !tbaa !17
  %53 = sext i32 %52 to i64
  %54 = getelementptr inbounds ptr, ptr %51, i64 %53
  %55 = load ptr, ptr %54, align 8, !tbaa !33
  %56 = icmp ne ptr %55, null
  br i1 %56, label %58, label %57

57:                                               ; preds = %48
  br label %92

58:                                               ; preds = %48
  call void @llvm.lifetime.start.p0(i64 4, ptr %6) #14
  store i32 0, ptr %6, align 4, !tbaa !17
  br label %59

59:                                               ; preds = %88, %58
  %60 = load ptr, ptr %2, align 8, !tbaa !32
  %61 = getelementptr inbounds nuw %struct.aclSelector, ptr %60, i32 0, i32 2
  %62 = load ptr, ptr %61, align 8, !tbaa !69
  %63 = load i32, ptr %4, align 4, !tbaa !17
  %64 = sext i32 %63 to i64
  %65 = getelementptr inbounds ptr, ptr %62, i64 %64
  %66 = load ptr, ptr %65, align 8, !tbaa !33
  %67 = load i32, ptr %6, align 4, !tbaa !17
  %68 = sext i32 %67 to i64
  %69 = getelementptr inbounds ptr, ptr %66, i64 %68
  %70 = load ptr, ptr %69, align 8, !tbaa !5
  %71 = icmp ne ptr %70, null
  br i1 %71, label %73, label %72

72:                                               ; preds = %59
  store i32 5, ptr %5, align 4
  call void @llvm.lifetime.end.p0(i64 4, ptr %6) #14
  br label %91

73:                                               ; preds = %59
  %74 = load ptr, ptr %3, align 8, !tbaa !32
  %75 = load i32, ptr %4, align 4, !tbaa !17
  %76 = sext i32 %75 to i64
  %77 = load ptr, ptr %2, align 8, !tbaa !32
  %78 = getelementptr inbounds nuw %struct.aclSelector, ptr %77, i32 0, i32 2
  %79 = load ptr, ptr %78, align 8, !tbaa !69
  %80 = load i32, ptr %4, align 4, !tbaa !17
  %81 = sext i32 %80 to i64
  %82 = getelementptr inbounds ptr, ptr %79, i64 %81
  %83 = load ptr, ptr %82, align 8, !tbaa !33
  %84 = load i32, ptr %6, align 4, !tbaa !17
  %85 = sext i32 %84 to i64
  %86 = getelementptr inbounds ptr, ptr %83, i64 %85
  %87 = load ptr, ptr %86, align 8, !tbaa !5
  call void @ACLAddAllowedFirstArg(ptr noundef %74, i64 noundef %76, ptr noundef %87)
  br label %88

88:                                               ; preds = %73
  %89 = load i32, ptr %6, align 4, !tbaa !17
  %90 = add nsw i32 %89, 1
  store i32 %90, ptr %6, align 4, !tbaa !17
  br label %59, !llvm.loop !78

91:                                               ; preds = %72
  br label %92

92:                                               ; preds = %91, %57
  %93 = load i32, ptr %4, align 4, !tbaa !17
  %94 = add nsw i32 %93, 1
  store i32 %94, ptr %4, align 4, !tbaa !17
  br label %44, !llvm.loop !79

95:                                               ; preds = %47
  br label %96

96:                                               ; preds = %95, %1
  %97 = load ptr, ptr %3, align 8, !tbaa !32
  store i32 1, ptr %5, align 4
  call void @llvm.lifetime.end.p0(i64 8, ptr %3) #14
  ret ptr %97
}