; Function Attrs: nounwind uwtable
define dso_local noalias noundef ptr @ACLCopySelector(ptr noundef readonly captures(none) %0) local_unnamed_addr #0 {
  %2 = tail call noalias dereferenceable_or_null(168) ptr @zmalloc(i64 noundef 168) #26
  %3 = load i32, ptr %0, align 8, !tbaa !61
  store i32 %3, ptr %2, align 8, !tbaa !61
  %4 = getelementptr inbounds nuw i8, ptr %0, i64 144
  %5 = load ptr, ptr %4, align 8, !tbaa !64
  %6 = tail call ptr @listDup(ptr noundef %5) #25
  %7 = getelementptr inbounds nuw i8, ptr %2, i64 144
  store ptr %6, ptr %7, align 8, !tbaa !64
  %8 = getelementptr inbounds nuw i8, ptr %0, i64 152
  %9 = load ptr, ptr %8, align 8, !tbaa !65
  %10 = tail call ptr @listDup(ptr noundef %9) #25
  %11 = getelementptr inbounds nuw i8, ptr %2, i64 152
  store ptr %10, ptr %11, align 8, !tbaa !65
  %12 = getelementptr inbounds nuw i8, ptr %0, i64 160
  %13 = load ptr, ptr %12, align 8, !tbaa !67
  %14 = tail call ptr @sdsdup(ptr noundef %13) #25
  %15 = getelementptr inbounds nuw i8, ptr %2, i64 160
  store ptr %14, ptr %15, align 8, !tbaa !67
  %16 = getelementptr inbounds nuw i8, ptr %2, i64 8
  %17 = getelementptr inbounds nuw i8, ptr %0, i64 8
  tail call void @llvm.memcpy.p0.p0.i64(ptr noundef nonnull align 8 dereferenceable(128) %16, ptr noundef nonnull align 8 dereferenceable(128) %17, i64 128, i1 false)
  %18 = getelementptr inbounds nuw i8, ptr %2, i64 136
  store ptr null, ptr %18, align 8, !tbaa !66
  %19 = getelementptr inbounds nuw i8, ptr %0, i64 136
  %20 = load ptr, ptr %19, align 8, !tbaa !66
  %.not = icmp eq ptr %20, null
  br i1 %.not, label %.loopexit30, label %.preheader29

.preheader29:                                     ; preds = %1, %.loopexit
  %.promoted = phi ptr [ %.promoted41, %.loopexit ], [ null, %1 ]
  %21 = phi ptr [ %56, %.loopexit ], [ %20, %1 ]
  %22 = phi ptr [ %57, %.loopexit ], [ %20, %1 ]
  %indvars.iv37 = phi i64 [ %indvars.iv.next38, %.loopexit ], [ 0, %1 ]
  %23 = getelementptr inbounds nuw ptr, ptr %22, i64 %indvars.iv37
  %24 = load ptr, ptr %23, align 8, !tbaa !73
  %.not27 = icmp eq ptr %24, null
  br i1 %.not27, label %.loopexit, label %.preheader

.preheader:                                       ; preds = %.preheader29
  %25 = getelementptr inbounds nuw ptr, ptr %21, i64 %indvars.iv37
  %26 = load ptr, ptr %25, align 8, !tbaa !73
  %27 = load ptr, ptr %26, align 8, !tbaa !29
  %.not2831 = icmp eq ptr %27, null
  br i1 %.not2831, label %.loopexit, label %.lr.ph

.lr.ph:                                           ; preds = %.preheader, %ACLAddAllowedFirstArg.exit
  %indvars.iv = phi i64 [ %indvars.iv.next, %ACLAddAllowedFirstArg.exit ], [ 0, %.preheader ]
  %28 = phi ptr [ %34, %ACLAddAllowedFirstArg.exit ], [ %.promoted, %.preheader ]
  %29 = phi ptr [ %55, %ACLAddAllowedFirstArg.exit ], [ %27, %.preheader ]
  %30 = icmp eq ptr %28, null
  br i1 %30, label %31, label %33

31:                                               ; preds = %.lr.ph
  %32 = tail call noalias dereferenceable_or_null(8192) ptr @zcalloc(i64 noundef 8192) #26
  br label %33

33:                                               ; preds = %31, %.lr.ph
  %34 = phi ptr [ %32, %31 ], [ %28, %.lr.ph ]
  %35 = getelementptr inbounds nuw ptr, ptr %34, i64 %indvars.iv37
  %36 = load ptr, ptr %35, align 8, !tbaa !73
  %.not.i = icmp eq ptr %36, null
  br i1 %.not.i, label %.loopexit.i, label %.preheader.i

.preheader.i:                                     ; preds = %33
  %37 = load ptr, ptr %36, align 8, !tbaa !29
  %.not2529.i = icmp eq ptr %37, null
  br i1 %.not2529.i, label %.loopexit.i, label %.lr.ph.i

.lr.ph.i:                                         ; preds = %.preheader.i, %40
  %38 = phi ptr [ %43, %40 ], [ %37, %.preheader.i ]
  %.130.i = phi i64 [ %41, %40 ], [ 0, %.preheader.i ]
  %39 = tail call i32 @strcasecmp(ptr noundef nonnull %38, ptr noundef nonnull %29) #29
  %.not26.i = icmp eq i32 %39, 0
  br i1 %.not26.i, label %ACLAddAllowedFirstArg.exit, label %40

40:                                               ; preds = %.lr.ph.i
  %41 = add nuw nsw i64 %.130.i, 1
  %42 = getelementptr inbounds nuw ptr, ptr %36, i64 %41
  %43 = load ptr, ptr %42, align 8, !tbaa !29
  %.not25.i = icmp eq ptr %43, null
  br i1 %.not25.i, label %.loopexit.i, label %.lr.ph.i, !llvm.loop !76

.loopexit.i:                                      ; preds = %40, %.preheader.i, %33
  %.0.i = phi i64 [ 0, %33 ], [ 0, %.preheader.i ], [ %41, %40 ]
  %44 = shl i64 %.0.i, 3
  %45 = add i64 %44, 16
  %46 = tail call ptr @zrealloc(ptr noundef %36, i64 noundef %45) #30
  store ptr %46, ptr %35, align 8, !tbaa !73
  %47 = tail call ptr @sdsnew(ptr noundef nonnull %29) #25
  %48 = load ptr, ptr %35, align 8, !tbaa !73
  %49 = getelementptr inbounds nuw ptr, ptr %48, i64 %.0.i
  store ptr %47, ptr %49, align 8, !tbaa !29
  %50 = getelementptr inbounds nuw i8, ptr %49, i64 8
  store ptr null, ptr %50, align 8, !tbaa !29
  br label %ACLAddAllowedFirstArg.exit

ACLAddAllowedFirstArg.exit:                       ; preds = %.lr.ph.i, %.loopexit.i
  %indvars.iv.next = add nuw nsw i64 %indvars.iv, 1
  %51 = load ptr, ptr %19, align 8, !tbaa !66
  %52 = getelementptr inbounds nuw ptr, ptr %51, i64 %indvars.iv37
  %53 = load ptr, ptr %52, align 8, !tbaa !73
  %54 = getelementptr inbounds nuw ptr, ptr %53, i64 %indvars.iv.next
  %55 = load ptr, ptr %54, align 8, !tbaa !29
  %.not28 = icmp eq ptr %55, null
  br i1 %.not28, label %..loopexit_crit_edge, label %.lr.ph, !llvm.loop !77

..loopexit_crit_edge:                             ; preds = %ACLAddAllowedFirstArg.exit
  store ptr %34, ptr %18, align 8
  br label %.loopexit

.loopexit:                                        ; preds = %.preheader, %..loopexit_crit_edge, %.preheader29
  %.promoted41 = phi ptr [ %.promoted, %.preheader ], [ %34, %..loopexit_crit_edge ], [ %.promoted, %.preheader29 ]
  %56 = phi ptr [ %21, %.preheader ], [ %51, %..loopexit_crit_edge ], [ %21, %.preheader29 ]
  %57 = phi ptr [ %21, %.preheader ], [ %51, %..loopexit_crit_edge ], [ %22, %.preheader29 ]
  %indvars.iv.next38 = add nuw nsw i64 %indvars.iv37, 1
  %exitcond.not = icmp eq i64 %indvars.iv.next38, 1024
  br i1 %exitcond.not, label %.loopexit30, label %.preheader29, !llvm.loop !78

.loopexit30:                                      ; preds = %.loopexit, %1
  ret ptr %2
}